ARM GAS  /tmp/ccEmXRHp.s 			page 1


   1              		.cpu cortex-m7
   2              		.arch armv7e-m
   3              		.fpu fpv5-sp-d16
   4              		.eabi_attribute 27, 1	@ Tag_ABI_HardFP_use
   5              		.eabi_attribute 28, 1	@ Tag_ABI_VFP_args
   6              		.eabi_attribute 20, 1	@ Tag_ABI_FP_denormal
   7              		.eabi_attribute 21, 1	@ Tag_ABI_FP_exceptions
   8              		.eabi_attribute 23, 3	@ Tag_ABI_FP_number_model
   9              		.eabi_attribute 24, 1	@ Tag_ABI_align8_needed
  10              		.eabi_attribute 25, 1	@ Tag_ABI_align8_preserved
  11              		.eabi_attribute 26, 1	@ Tag_ABI_enum_size
  12              		.eabi_attribute 30, 2	@ Tag_ABI_optimization_goals
  13              		.eabi_attribute 34, 1	@ Tag_CPU_unaligned_access
  14              		.eabi_attribute 18, 4	@ Tag_ABI_PCS_wchar_t
  15              		.file	"main.c"
  16              	@ GNU C17 (Arch Repository) version 13.2.0 (arm-none-eabi)
  17              	@	compiled by GNU C version 13.2.1 20230801, GMP version 6.3.0, MPFR version 4.2.0-p12, MPC version
  18              	
  19              	@ warning: MPFR header version 4.2.0-p12 differs from library version 4.2.1.
  20              	@ GGC heuristics: --param ggc-min-expand=100 --param ggc-min-heapsize=131072
  21              	@ options passed: -mthumb -mcpu=cortex-m7 -mfloat-abi=hard -mfpu=fpv5-sp-d16 -mword-relocations -ma
  22              		.text
  23              	.Ltext0:
  24              		.cfi_sections	.debug_frame
  25              		.file 1 "src/main.c"
  26              		.section	.text.update,"ax",%progbits
  27              		.align	1
  28              		.p2align 4,,15
  29              		.syntax unified
  30              		.thumb
  31              		.thumb_func
  32              		.type	update, %function
  33              	update:
  34              	.LVL0:
  35              	.LFB16:
   1:src/main.c    **** //
   2:src/main.c    **** //  main.c
   3:src/main.c    **** //  Extension
   4:src/main.c    **** //
   5:src/main.c    **** //  Created by Dave Hayden on 7/30/14.
   6:src/main.c    **** //  Copyright (c) 2014 Panic, Inc. All rights reserved.
   7:src/main.c    **** //
   8:src/main.c    **** 
   9:src/main.c    **** #include <math.h>
  10:src/main.c    **** #include <stdio.h>
  11:src/main.c    **** #include <stdlib.h>
  12:src/main.c    **** #include <string.h>
  13:src/main.c    **** 
  14:src/main.c    **** #include "pd_api.h"
  15:src/main.c    **** #include "pd_api/pd_api_gfx.h"
  16:src/main.c    **** #include "pd_api/pd_api_sys.h"
  17:src/main.c    **** 
  18:src/main.c    **** static int update(void *userdata);
  19:src/main.c    **** static void splitLines();
  20:src/main.c    **** // static void angleDrawLine(void *userdata, float);
  21:src/main.c    **** LCDFont *font = NULL;
  22:src/main.c    **** 
ARM GAS  /tmp/ccEmXRHp.s 			page 2


  23:src/main.c    **** #ifdef _WINDLL
  24:src/main.c    **** __declspec(dllexport)
  25:src/main.c    **** #endif
  26:src/main.c    ****     int eventHandler(PlaydateAPI *pd, PDSystemEvent event, uint32_t arg) {
  27:src/main.c    ****   (void)arg; // arg is currently only used for event = kEventKeyPressed
  28:src/main.c    **** 
  29:src/main.c    ****   if (event == kEventInit) {
  30:src/main.c    ****     const char *err;
  31:src/main.c    ****     pd->system->setUpdateCallback(update, pd);
  32:src/main.c    ****     splitLines();
  33:src/main.c    ****   }
  34:src/main.c    ****   return 0;
  35:src/main.c    **** }
  36:src/main.c    **** 
  37:src/main.c    **** #define SCREEN_HEIGHT 240
  38:src/main.c    **** #define SCREEN_WIDTH 400
  39:src/main.c    **** 
  40:src/main.c    **** #define TEXT_WIDTH 86
  41:src/main.c    **** #define TEXT_HEIGHT 16
  42:src/main.c    **** 
  43:src/main.c    **** static char **lines;
  44:src/main.c    **** static int numlines;
  45:src/main.c    **** 
  46:src/main.c    **** static int update(void *userdata) {
  36              		.loc 1 46 35 view -0
  37              		.cfi_startproc
  38              		@ args = 0, pretend = 0, frame = 0
  39              		@ frame_needed = 0, uses_anonymous_args = 0
  47:src/main.c    ****   PlaydateAPI *pd = userdata;
  40              		.loc 1 47 3 view .LVU1
  41              	@ src/main.c:46: static int update(void *userdata) {
  46:src/main.c    ****   PlaydateAPI *pd = userdata;
  42              		.loc 1 46 35 is_stmt 0 view .LVU2
  43 0000 10B5     		push	{r4, lr}	@
  44              	.LCFI0:
  45              		.cfi_def_cfa_offset 8
  46              		.cfi_offset 4, -8
  47              		.cfi_offset 14, -4
  48              	@ src/main.c:46: static int update(void *userdata) {
  46:src/main.c    ****   PlaydateAPI *pd = userdata;
  49              		.loc 1 46 35 view .LVU3
  50 0002 0446     		mov	r4, r0	@ tmp128, userdata
  51              	@ src/main.c:48:   pd->graphics->clear(kColorWhite);
  48:src/main.c    ****   pd->graphics->clear(kColorWhite);
  52              		.loc 1 48 3 view .LVU4
  53 0004 0120     		movs	r0, #1	@,
  54              	.LVL1:
  55              		.loc 1 48 3 is_stmt 1 view .LVU5
  56              	@ src/main.c:48:   pd->graphics->clear(kColorWhite);
  57              		.loc 1 48 15 is_stmt 0 view .LVU6
  58 0006 A368     		ldr	r3, [r4, #8]	@ MEM[(struct PlaydateAPI *)userdata_18(D)].graphics, MEM[(struct PlaydateAPI *)u
  59              	@ src/main.c:48:   pd->graphics->clear(kColorWhite);
  60              		.loc 1 48 3 view .LVU7
  61 0008 5B68     		ldr	r3, [r3, #4]	@ _1->clear, _1->clear
  62 000a 9847     		blx	r3		@ _1->clear
  63              	.LVL2:
  49:src/main.c    ****   pd->graphics->setFont(font);
ARM GAS  /tmp/ccEmXRHp.s 			page 3


  64              		.loc 1 49 3 is_stmt 1 view .LVU8
  65 000c 034A     		ldr	r2, .L4	@ tmp123,
  66              	@ src/main.c:49:   pd->graphics->setFont(font);
  67              		.loc 1 49 15 is_stmt 0 view .LVU9
  68 000e A368     		ldr	r3, [r4, #8]	@ MEM[(struct PlaydateAPI *)userdata_18(D)].graphics, MEM[(struct PlaydateAPI *)u
  69              	@ src/main.c:49:   pd->graphics->setFont(font);
  70              		.loc 1 49 3 view .LVU10
  71 0010 1068     		ldr	r0, [r2]	@, font
  72 0012 5B6A     		ldr	r3, [r3, #36]	@ _3->setFont, _3->setFont
  73 0014 9847     		blx	r3		@ _3->setFont
  74              	.LVL3:
  50:src/main.c    ****   for (int i = 0; i < numlines; i++) {
  75              		.loc 1 50 3 is_stmt 1 view .LVU11
  76              		.loc 1 50 8 view .LVU12
  77              		.loc 1 50 21 discriminator 1 view .LVU13
  51:src/main.c    ****     pd->graphics->drawText(lines[i], strlen(lines[i]), kUTF8Encoding, 0,
  52:src/main.c    ****                            i * TEXT_HEIGHT);
  53:src/main.c    ****   }
  54:src/main.c    ****   // pd->graphics->drawText(JUNK_TEXT, strlen(junktext), kUTF8Encoding, 0, 0);
  55:src/main.c    **** 
  56:src/main.c    ****   return 1;
  78              		.loc 1 56 3 view .LVU14
  79              	@ src/main.c:57: }
  57:src/main.c    **** }
  80              		.loc 1 57 1 is_stmt 0 view .LVU15
  81 0016 0120     		movs	r0, #1	@,
  82 0018 10BD     		pop	{r4, pc}	@
  83              	.LVL4:
  84              	.L5:
  85              		.loc 1 57 1 view .LVU16
  86 001a 00BF     		.align	2
  87              	.L4:
  88 001c 00000000 		.word	font
  89              		.cfi_endproc
  90              	.LFE16:
  91              		.size	update, .-update
  92              		.section	.text.eventHandler,"ax",%progbits
  93              		.align	1
  94              		.p2align 4,,15
  95              		.global	eventHandler
  96              		.syntax unified
  97              		.thumb
  98              		.thumb_func
  99              		.type	eventHandler, %function
 100              	eventHandler:
 101              	.LVL5:
 102              	.LFB15:
  26:src/main.c    ****   (void)arg; // arg is currently only used for event = kEventKeyPressed
 103              		.loc 1 26 74 is_stmt 1 view -0
 104              		.cfi_startproc
 105              		@ args = 0, pretend = 0, frame = 0
 106              		@ frame_needed = 0, uses_anonymous_args = 0
  27:src/main.c    **** 
 107              		.loc 1 27 3 view .LVU18
  29:src/main.c    ****     const char *err;
 108              		.loc 1 29 3 view .LVU19
 109              	@ src/main.c:26:     int eventHandler(PlaydateAPI *pd, PDSystemEvent event, uint32_t arg) {
ARM GAS  /tmp/ccEmXRHp.s 			page 4


  26:src/main.c    ****   (void)arg; // arg is currently only used for event = kEventKeyPressed
 110              		.loc 1 26 74 is_stmt 0 view .LVU20
 111 0000 70B5     		push	{r4, r5, r6, lr}	@
 112              	.LCFI1:
 113              		.cfi_def_cfa_offset 16
 114              		.cfi_offset 4, -16
 115              		.cfi_offset 5, -12
 116              		.cfi_offset 6, -8
 117              		.cfi_offset 14, -4
 118              	@ src/main.c:26:     int eventHandler(PlaydateAPI *pd, PDSystemEvent event, uint32_t arg) {
  26:src/main.c    ****   (void)arg; // arg is currently only used for event = kEventKeyPressed
 119              		.loc 1 26 74 view .LVU21
 120 0002 0C46     		mov	r4, r1	@ tmp156, event
 121              	@ src/main.c:29:   if (event == kEventInit) {
  29:src/main.c    ****     const char *err;
 122              		.loc 1 29 6 view .LVU22
 123 0004 31BB     		cbnz	r1, .L14	@ event,
 124              	.LBB7:
 125              	@ src/main.c:31:     pd->system->setUpdateCallback(update, pd);
  31:src/main.c    ****     splitLines();
 126              		.loc 1 31 15 view .LVU23
 127 0006 0368     		ldr	r3, [r0]	@ pd_6(D)->system, pd_6(D)->system
 128 0008 0146     		mov	r1, r0	@ pd, tmp155
 129              	.LVL6:
  30:src/main.c    ****     pd->system->setUpdateCallback(update, pd);
 130              		.loc 1 30 5 is_stmt 1 view .LVU24
  31:src/main.c    ****     splitLines();
 131              		.loc 1 31 5 view .LVU25
 132 000a 1348     		ldr	r0, .L16	@,
 133              	.LVL7:
 134              	.LBB8:
 135              	.LBB9:
 136              	.LBB10:
 137              	.LBB11:
 138              	@ src/main.c:76:     line[j] = '\0';
  58:src/main.c    **** 
  59:src/main.c    **** static char *junktext =
  60:src/main.c    ****     "sjdlkfjdslkfjlksjdfjlkdsjflkslkfjlkdsjflksjlkfjdlkfjslkfjlkdsjlkfdslkjfdsj"
  61:src/main.c    ****     "lkfjdslkjflksjflkjslkfjkljdslkfjslkfjlkjdslkfsjlkfjlkfds";
  62:src/main.c    **** 
  63:src/main.c    **** static void splitLines() {
  64:src/main.c    ****   int charsPerLine = SCREEN_WIDTH / TEXT_WIDTH;
  65:src/main.c    ****   // split junk text into lines of width charsPerLine
  66:src/main.c    ****   int len = strlen(junktext);
  67:src/main.c    ****   int numlines = len / charsPerLine;
  68:src/main.c    ****   lines = malloc(sizeof(char *) * numlines);
  69:src/main.c    ****   for (int i = 0; i < len; i++) {
  70:src/main.c    ****     char *line = malloc(sizeof(char) * charsPerLine);
  71:src/main.c    ****     int j = 0;
  72:src/main.c    ****     for (; (j < i * charsPerLine + 1) && line[i * charsPerLine + 1] != '\0';
  73:src/main.c    ****          j++) {
  74:src/main.c    ****       line[j] = i * charsPerLine + j;
  75:src/main.c    ****     }
  76:src/main.c    ****     line[j] = '\0';
 139              		.loc 1 76 13 is_stmt 0 view .LVU26
 140 000c 2546     		mov	r5, r4	@ tmp152, ivtmp.36
 141              	.LBE11:
ARM GAS  /tmp/ccEmXRHp.s 			page 5


 142              	.LBE10:
 143              	.LBE9:
 144              	.LBE8:
 145              	@ src/main.c:31:     pd->system->setUpdateCallback(update, pd);
  31:src/main.c    ****     splitLines();
 146              		.loc 1 31 5 view .LVU27
 147 000e 1B6A     		ldr	r3, [r3, #32]	@ _1->setUpdateCallback, _1->setUpdateCallback
 148 0010 9847     		blx	r3		@ _1->setUpdateCallback
 149              	.LVL8:
  32:src/main.c    ****   }
 150              		.loc 1 32 5 is_stmt 1 view .LVU28
 151              	.LBB16:
 152              	.LBI8:
  63:src/main.c    ****   int charsPerLine = SCREEN_WIDTH / TEXT_WIDTH;
 153              		.loc 1 63 13 view .LVU29
 154              	.LBB15:
  64:src/main.c    ****   // split junk text into lines of width charsPerLine
 155              		.loc 1 64 3 view .LVU30
  66:src/main.c    ****   int numlines = len / charsPerLine;
 156              		.loc 1 66 3 view .LVU31
  67:src/main.c    ****   lines = malloc(sizeof(char *) * numlines);
 157              		.loc 1 67 3 view .LVU32
  68:src/main.c    ****   for (int i = 0; i < len; i++) {
 158              		.loc 1 68 3 view .LVU33
 159              	@ src/main.c:68:   lines = malloc(sizeof(char *) * numlines);
  68:src/main.c    ****   for (int i = 0; i < len; i++) {
 160              		.loc 1 68 11 is_stmt 0 view .LVU34
 161 0012 8020     		movs	r0, #128	@,
 162 0014 FFF7FEFF 		bl	malloc		@
 163              	.LVL9:
 164              	@ src/main.c:68:   lines = malloc(sizeof(char *) * numlines);
  68:src/main.c    ****   for (int i = 0; i < len; i++) {
 165              		.loc 1 68 9 discriminator 1 view .LVU35
 166 0018 104B     		ldr	r3, .L16+4	@ tmp144,
 167 001a 061F     		subs	r6, r0, #4	@ ivtmp.38, tmp143,
 168 001c 1860     		str	r0, [r3]	@ tmp143, lines
  69:src/main.c    ****     char *line = malloc(sizeof(char) * charsPerLine);
 169              		.loc 1 69 3 is_stmt 1 view .LVU36
 170              	.LBB14:
  69:src/main.c    ****     char *line = malloc(sizeof(char) * charsPerLine);
 171              		.loc 1 69 8 view .LVU37
 172              	.LVL10:
  69:src/main.c    ****     char *line = malloc(sizeof(char) * charsPerLine);
 173              		.loc 1 69 21 discriminator 1 view .LVU38
 174              	.L11:
 175              	.LBB12:
  70:src/main.c    ****     int j = 0;
 176              		.loc 1 70 5 view .LVU39
 177              	@ src/main.c:70:     char *line = malloc(sizeof(char) * charsPerLine);
  70:src/main.c    ****     int j = 0;
 178              		.loc 1 70 18 is_stmt 0 view .LVU40
 179 001e 0420     		movs	r0, #4	@,
 180 0020 FFF7FEFF 		bl	malloc		@
 181              	.LVL11:
 182              	@ src/main.c:72:     for (; (j < i * charsPerLine + 1) && line[i * charsPerLine + 1] != '\0';
  72:src/main.c    ****          j++) {
 183              		.loc 1 72 46 discriminator 1 view .LVU41
ARM GAS  /tmp/ccEmXRHp.s 			page 6


 184 0024 04F1010E 		add	lr, r4, #1	@ tmp146, ivtmp.36,
 185              	@ src/main.c:71:     int j = 0;
  71:src/main.c    ****     for (; (j < i * charsPerLine + 1) && line[i * charsPerLine + 1] != '\0';
 186              		.loc 1 71 9 view .LVU42
 187 0028 0023     		movs	r3, #0	@ j,
 188              	.LVL12:
  71:src/main.c    ****     for (; (j < i * charsPerLine + 1) && line[i * charsPerLine + 1] != '\0';
 189              		.loc 1 71 5 is_stmt 1 view .LVU43
  72:src/main.c    ****          j++) {
 190              		.loc 1 72 5 view .LVU44
  72:src/main.c    ****          j++) {
 191              		.loc 1 72 39 view .LVU45
 192 002a 421E     		subs	r2, r0, #1	@ ivtmp.27, line,
 193              	@ src/main.c:72:     for (; (j < i * charsPerLine + 1) && line[i * charsPerLine + 1] != '\0';
  72:src/main.c    ****          j++) {
 194              		.loc 1 72 46 is_stmt 0 discriminator 1 view .LVU46
 195 002c 8644     		add	lr, lr, r0	@ _31, line
 196 002e 04E0     		b	.L8		@
 197              	.LVL13:
 198              	.L10:
 199              	@ src/main.c:73:          j++) {
  73:src/main.c    ****       line[j] = i * charsPerLine + j;
 200              		.loc 1 73 11 view .LVU47
 201 0030 0133     		adds	r3, r3, #1	@ j, j,
 202              	.LVL14:
 203              	@ src/main.c:74:       line[j] = i * charsPerLine + j;
  74:src/main.c    ****     }
 204              		.loc 1 74 15 view .LVU48
 205 0032 02F801CF 		strb	ip, [r2, #1]!	@ tmp149, MEM[(char *)_54]
  73:src/main.c    ****       line[j] = i * charsPerLine + j;
 206              		.loc 1 73 11 is_stmt 1 view .LVU49
 207              	.LVL15:
  72:src/main.c    ****          j++) {
 208              		.loc 1 72 39 view .LVU50
 209 0036 A342     		cmp	r3, r4	@ j, ivtmp.36
 210 0038 05DC     		bgt	.L9		@,
 211              	.LVL16:
 212              	.L8:
  74:src/main.c    ****     }
 213              		.loc 1 74 7 view .LVU51
 214              	@ src/main.c:72:     for (; (j < i * charsPerLine + 1) && line[i * charsPerLine + 1] != '\0';
  72:src/main.c    ****          j++) {
 215              		.loc 1 72 39 is_stmt 0 discriminator 1 view .LVU52
 216 003a 9EF80010 		ldrb	r1, [lr]	@ zero_extendqisi2	@ *_31, *_31
 217              	@ src/main.c:74:       line[j] = i * charsPerLine + j;
  74:src/main.c    ****     }
 218              		.loc 1 74 34 view .LVU53
 219 003e 03EB040C 		add	ip, r3, r4	@ tmp149, j, ivtmp.36
 220              	@ src/main.c:72:     for (; (j < i * charsPerLine + 1) && line[i * charsPerLine + 1] != '\0';
  72:src/main.c    ****          j++) {
 221              		.loc 1 72 39 discriminator 1 view .LVU54
 222 0042 0029     		cmp	r1, #0	@ *_31
 223 0044 F4D1     		bne	.L10	@
 224              	.L9:
 225              		.loc 1 76 5 is_stmt 1 view .LVU55
 226              	.LBE12:
 227              	@ src/main.c:69:   for (int i = 0; i < len; i++) {
ARM GAS  /tmp/ccEmXRHp.s 			page 7


  69:src/main.c    ****     char *line = malloc(sizeof(char) * charsPerLine);
 228              		.loc 1 69 21 is_stmt 0 discriminator 1 view .LVU56
 229 0046 0434     		adds	r4, r4, #4	@ ivtmp.36, ivtmp.36,
 230              	.LBB13:
 231              	@ src/main.c:76:     line[j] = '\0';
 232              		.loc 1 76 13 view .LVU57
 233 0048 C554     		strb	r5, [r0, r3]	@ tmp152, *_33
  77:src/main.c    ****     lines[i] = line;
 234              		.loc 1 77 5 is_stmt 1 view .LVU58
 235              	@ src/main.c:77:     lines[i] = line;
 236              		.loc 1 77 14 is_stmt 0 view .LVU59
 237 004a 46F8040F 		str	r0, [r6, #4]!	@ line, MEM[(char * *)_61]
 238              	.LBE13:
  69:src/main.c    ****     char *line = malloc(sizeof(char) * charsPerLine);
 239              		.loc 1 69 29 is_stmt 1 discriminator 2 view .LVU60
  69:src/main.c    ****     char *line = malloc(sizeof(char) * charsPerLine);
 240              		.loc 1 69 21 discriminator 1 view .LVU61
 241 004e B4F5027F 		cmp	r4, #520	@ ivtmp.36,
 242 0052 E4D1     		bne	.L11		@,
 243              	.LVL17:
 244              	.L14:
  69:src/main.c    ****     char *line = malloc(sizeof(char) * charsPerLine);
 245              		.loc 1 69 21 is_stmt 0 discriminator 1 view .LVU62
 246              	.LBE14:
 247              	.LBE15:
 248              	.LBE16:
 249              	.LBE7:
 250              	@ src/main.c:35: }
  35:src/main.c    **** 
 251              		.loc 1 35 1 view .LVU63
 252 0054 0020     		movs	r0, #0	@,
 253 0056 70BD     		pop	{r4, r5, r6, pc}	@
 254              	.L17:
 255              		.align	2
 256              	.L16:
 257 0058 00000000 		.word	update
 258 005c 00000000 		.word	lines
 259              		.cfi_endproc
 260              	.LFE15:
 261              		.size	eventHandler, .-eventHandler
 262              		.section	.bss.lines,"aw",%nobits
 263              		.align	2
 264              		.type	lines, %object
 265              		.size	lines, 4
 266              	lines:
 267 0000 00000000 		.space	4
 268              		.global	font
 269              		.section	.bss.font,"aw",%nobits
 270              		.align	2
 271              		.type	font, %object
 272              		.size	font, 4
 273              	font:
 274 0000 00000000 		.space	4
 275              		.text
 276              	.Letext0:
 277              		.file 2 "/usr/lib/gcc/arm-none-eabi/13.2.0/include/stddef.h"
 278              		.file 3 "/usr/arm-none-eabi/include/machine/_default_types.h"
ARM GAS  /tmp/ccEmXRHp.s 			page 8


 279              		.file 4 "/usr/arm-none-eabi/include/sys/_stdint.h"
 280              		.file 5 "/home/nate/playdate/PlaydateSDK-2.0.3/C_API/pd_api/pd_api_gfx.h"
 281              		.file 6 "/home/nate/playdate/PlaydateSDK-2.0.3/C_API/pd_api/pd_api_sys.h"
 282              		.file 7 "/home/nate/playdate/PlaydateSDK-2.0.3/C_API/pd_api/pd_api_lua.h"
 283              		.file 8 "/home/nate/playdate/PlaydateSDK-2.0.3/C_API/pd_api/pd_api_json.h"
 284              		.file 9 "/home/nate/playdate/PlaydateSDK-2.0.3/C_API/pd_api/pd_api_file.h"
 285              		.file 10 "/home/nate/playdate/PlaydateSDK-2.0.3/C_API/pd_api/pd_api_sprite.h"
 286              		.file 11 "/home/nate/playdate/PlaydateSDK-2.0.3/C_API/pd_api/pd_api_sound.h"
 287              		.file 12 "/home/nate/playdate/PlaydateSDK-2.0.3/C_API/pd_api/pd_api_display.h"
 288              		.file 13 "/home/nate/playdate/PlaydateSDK-2.0.3/C_API/pd_api/pd_api_scoreboards.h"
 289              		.file 14 "/home/nate/playdate/PlaydateSDK-2.0.3/C_API/pd_api.h"
 290              		.file 15 "/usr/arm-none-eabi/include/stdlib.h"
 291              		.file 16 "/usr/arm-none-eabi/include/string.h"