ARM GAS  /tmp/cc6Xbu2q.s 			page 1


   1              		.cpu cortex-m7
   2              		.arch armv7e-m
   3              		.fpu fpv5-sp-d16
   4              		.eabi_attribute 27, 1	@ Tag_ABI_HardFP_use
   5              		.eabi_attribute 28, 1	@ Tag_ABI_VFP_args
   6              		.eabi_attribute 20, 1	@ Tag_ABI_FP_denormal
   7              		.eabi_attribute 21, 1	@ Tag_ABI_FP_exceptions
   8              		.eabi_attribute 23, 3	@ Tag_ABI_FP_number_model
   9              		.eabi_attribute 24, 1	@ Tag_ABI_align8_needed
  10              		.eabi_attribute 25, 1	@ Tag_ABI_align8_preserved
  11              		.eabi_attribute 26, 1	@ Tag_ABI_enum_size
  12              		.eabi_attribute 30, 2	@ Tag_ABI_optimization_goals
  13              		.eabi_attribute 34, 1	@ Tag_CPU_unaligned_access
  14              		.eabi_attribute 18, 4	@ Tag_ABI_PCS_wchar_t
  15              		.file	"setup.c"
  16              	@ GNU C17 (Arch Repository) version 13.2.0 (arm-none-eabi)
  17              	@	compiled by GNU C version 13.2.1 20230801, GMP version 6.3.0, MPFR version 4.2.0-p12, MPC version
  18              	
  19              	@ warning: MPFR header version 4.2.0-p12 differs from library version 4.2.1.
  20              	@ GGC heuristics: --param ggc-min-expand=100 --param ggc-min-heapsize=131072
  21              	@ options passed: -mthumb -mcpu=cortex-m7 -mfloat-abi=hard -mfpu=fpv5-sp-d16 -mword-relocations -ma
  22              		.text
  23              	.Ltext0:
  24              		.cfi_sections	.debug_frame
  25              		.file 1 "/home/nate/playdate/PlaydateSDK-2.0.3/C_API/buildsupport/setup.c"
  26              		.section	.text.eventHandlerShim,"ax",%progbits
  27              		.align	1
  28              		.p2align 4,,15
  29              		.global	eventHandlerShim
  30              		.syntax unified
  31              		.thumb
  32              		.thumb_func
  33              		.type	eventHandlerShim, %function
  34              	eventHandlerShim:
  35              	.LVL0:
  36              	.LFB12:
   1:/home/nate/playdate/PlaydateSDK-2.0.3/C_API/buildsupport/setup.c **** 
   2:/home/nate/playdate/PlaydateSDK-2.0.3/C_API/buildsupport/setup.c **** #include "pd_api.h"
   3:/home/nate/playdate/PlaydateSDK-2.0.3/C_API/buildsupport/setup.c **** 
   4:/home/nate/playdate/PlaydateSDK-2.0.3/C_API/buildsupport/setup.c **** typedef int (PDEventHandler)(PlaydateAPI* playdate, PDSystemEvent event, uint32_t arg);
   5:/home/nate/playdate/PlaydateSDK-2.0.3/C_API/buildsupport/setup.c **** 
   6:/home/nate/playdate/PlaydateSDK-2.0.3/C_API/buildsupport/setup.c **** extern PDEventHandler eventHandler;
   7:/home/nate/playdate/PlaydateSDK-2.0.3/C_API/buildsupport/setup.c **** 
   8:/home/nate/playdate/PlaydateSDK-2.0.3/C_API/buildsupport/setup.c **** static void* (*pdrealloc)(void* ptr, size_t size);
   9:/home/nate/playdate/PlaydateSDK-2.0.3/C_API/buildsupport/setup.c **** 
  10:/home/nate/playdate/PlaydateSDK-2.0.3/C_API/buildsupport/setup.c **** int eventHandlerShim(PlaydateAPI* playdate, PDSystemEvent event, uint32_t arg)
  11:/home/nate/playdate/PlaydateSDK-2.0.3/C_API/buildsupport/setup.c **** {
  37              		.loc 1 11 1 view -0
  38              		.cfi_startproc
  39              		@ args = 0, pretend = 0, frame = 0
  40              		@ frame_needed = 0, uses_anonymous_args = 0
  41              		@ link register save eliminated.
  12:/home/nate/playdate/PlaydateSDK-2.0.3/C_API/buildsupport/setup.c **** 	if ( event == kEventInit )
  42              		.loc 1 12 2 view .LVU1
  43              	@ /home/nate/playdate/PlaydateSDK-2.0.3/C_API/buildsupport/setup.c:12: 	if ( event == kEventInit )
  44              		.loc 1 12 5 is_stmt 0 view .LVU2
  45 0000 41B9     		cbnz	r1, .L4	@ event,
ARM GAS  /tmp/cc6Xbu2q.s 			page 2


  13:/home/nate/playdate/PlaydateSDK-2.0.3/C_API/buildsupport/setup.c **** 		pdrealloc = playdate->system->realloc;
  46              		.loc 1 13 3 is_stmt 1 view .LVU3
  14:/home/nate/playdate/PlaydateSDK-2.0.3/C_API/buildsupport/setup.c **** 	
  15:/home/nate/playdate/PlaydateSDK-2.0.3/C_API/buildsupport/setup.c **** 	return eventHandler(playdate, event, arg);
  47              		.loc 1 15 2 view .LVU4
  48              	@ /home/nate/playdate/PlaydateSDK-2.0.3/C_API/buildsupport/setup.c:13: 		pdrealloc = playdate->syst
  13:/home/nate/playdate/PlaydateSDK-2.0.3/C_API/buildsupport/setup.c **** 		pdrealloc = playdate->system->realloc;
  49              		.loc 1 13 13 is_stmt 0 view .LVU5
  50 0002 054B     		ldr	r3, .L8	@ tmp120,
  51              	@ /home/nate/playdate/PlaydateSDK-2.0.3/C_API/buildsupport/setup.c:11: {
  11:/home/nate/playdate/PlaydateSDK-2.0.3/C_API/buildsupport/setup.c **** 	if ( event == kEventInit )
  52              		.loc 1 11 1 view .LVU6
  53 0004 10B4     		push	{r4}	@
  54              	.LCFI0:
  55              		.cfi_def_cfa_offset 4
  56              		.cfi_offset 4, -4
  57              	@ /home/nate/playdate/PlaydateSDK-2.0.3/C_API/buildsupport/setup.c:13: 		pdrealloc = playdate->syst
  13:/home/nate/playdate/PlaydateSDK-2.0.3/C_API/buildsupport/setup.c **** 		pdrealloc = playdate->system->realloc;
  58              		.loc 1 13 31 view .LVU7
  59 0006 0468     		ldr	r4, [r0]	@ playdate_6(D)->system, playdate_6(D)->system
  60              	@ /home/nate/playdate/PlaydateSDK-2.0.3/C_API/buildsupport/setup.c:13: 		pdrealloc = playdate->syst
  13:/home/nate/playdate/PlaydateSDK-2.0.3/C_API/buildsupport/setup.c **** 		pdrealloc = playdate->system->realloc;
  61              		.loc 1 13 13 view .LVU8
  62 0008 2468     		ldr	r4, [r4]	@ tmp127, _1->realloc
  63 000a 1C60     		str	r4, [r3]	@ tmp127, pdrealloc
  64              	@ /home/nate/playdate/PlaydateSDK-2.0.3/C_API/buildsupport/setup.c:16: }
  16:/home/nate/playdate/PlaydateSDK-2.0.3/C_API/buildsupport/setup.c **** }
  65              		.loc 1 16 1 view .LVU9
  66 000c 5DF8044B 		ldr	r4, [sp], #4	@,
  67              	.LCFI1:
  68              		.cfi_restore 4
  69              		.cfi_def_cfa_offset 0
  70              	@ /home/nate/playdate/PlaydateSDK-2.0.3/C_API/buildsupport/setup.c:15: 	return eventHandler(playdat
  15:/home/nate/playdate/PlaydateSDK-2.0.3/C_API/buildsupport/setup.c **** }
  71              		.loc 1 15 9 view .LVU10
  72 0010 FFF7FEBF 		b	eventHandler		@
  73              	.LVL1:
  74              	.L4:
  15:/home/nate/playdate/PlaydateSDK-2.0.3/C_API/buildsupport/setup.c **** }
  75              		.loc 1 15 2 is_stmt 1 view .LVU11
  76              	@ /home/nate/playdate/PlaydateSDK-2.0.3/C_API/buildsupport/setup.c:15: 	return eventHandler(playdat
  15:/home/nate/playdate/PlaydateSDK-2.0.3/C_API/buildsupport/setup.c **** }
  77              		.loc 1 15 9 is_stmt 0 view .LVU12
  78 0014 FFF7FEBF 		b	eventHandler		@
  79              	.LVL2:
  80              	.L9:
  15:/home/nate/playdate/PlaydateSDK-2.0.3/C_API/buildsupport/setup.c **** }
  81              		.loc 1 15 9 view .LVU13
  82              		.align	2
  83              	.L8:
  84 0018 00000000 		.word	pdrealloc
  85              		.cfi_endproc
  86              	.LFE12:
  87              		.size	eventHandlerShim, .-eventHandlerShim
  88              		.section	.text._malloc_r,"ax",%progbits
  89              		.align	1
  90              		.p2align 4,,15
ARM GAS  /tmp/cc6Xbu2q.s 			page 3


  91              		.global	_malloc_r
  92              		.syntax unified
  93              		.thumb
  94              		.thumb_func
  95              		.type	_malloc_r, %function
  96              	_malloc_r:
  97              	.LVL3:
  98              	.LFB13:
  17:/home/nate/playdate/PlaydateSDK-2.0.3/C_API/buildsupport/setup.c **** 
  18:/home/nate/playdate/PlaydateSDK-2.0.3/C_API/buildsupport/setup.c **** #if TARGET_PLAYDATE
  19:/home/nate/playdate/PlaydateSDK-2.0.3/C_API/buildsupport/setup.c **** 
  20:/home/nate/playdate/PlaydateSDK-2.0.3/C_API/buildsupport/setup.c **** void* _malloc_r(struct _reent* _REENT, size_t nbytes) { return pdrealloc(NULL,nbytes); }
  99              		.loc 1 20 55 is_stmt 1 view -0
 100              		.cfi_startproc
 101              		@ args = 0, pretend = 0, frame = 0
 102              		@ frame_needed = 0, uses_anonymous_args = 0
 103              		@ link register save eliminated.
 104              		.loc 1 20 57 view .LVU15
 105              	@ /home/nate/playdate/PlaydateSDK-2.0.3/C_API/buildsupport/setup.c:20: void* _malloc_r(struct _reen
 106              		.loc 1 20 64 is_stmt 0 view .LVU16
 107 0000 014B     		ldr	r3, .L11	@ tmp118,
 108 0002 0020     		movs	r0, #0	@,
 109              	.LVL4:
 110              		.loc 1 20 64 view .LVU17
 111 0004 1B68     		ldr	r3, [r3]	@ pdrealloc, pdrealloc
 112 0006 1847     		bx	r3		@ pdrealloc
 113              	.LVL5:
 114              	.L12:
 115              		.loc 1 20 64 view .LVU18
 116              		.align	2
 117              	.L11:
 118 0008 00000000 		.word	pdrealloc
 119              		.cfi_endproc
 120              	.LFE13:
 121              		.size	_malloc_r, .-_malloc_r
 122              		.section	.text._realloc_r,"ax",%progbits
 123              		.align	1
 124              		.p2align 4,,15
 125              		.global	_realloc_r
 126              		.syntax unified
 127              		.thumb
 128              		.thumb_func
 129              		.type	_realloc_r, %function
 130              	_realloc_r:
 131              	.LVL6:
 132              	.LFB14:
  21:/home/nate/playdate/PlaydateSDK-2.0.3/C_API/buildsupport/setup.c **** void* _realloc_r(struct _reent* _REENT, void* ptr, size_t nbytes) { return pdrealloc(ptr,nbytes); }
 133              		.loc 1 21 67 is_stmt 1 view -0
 134              		.cfi_startproc
 135              		@ args = 0, pretend = 0, frame = 0
 136              		@ frame_needed = 0, uses_anonymous_args = 0
 137              		@ link register save eliminated.
 138              		.loc 1 21 69 view .LVU20
 139              	@ /home/nate/playdate/PlaydateSDK-2.0.3/C_API/buildsupport/setup.c:21: void* _realloc_r(struct _ree
 140              		.loc 1 21 76 is_stmt 0 view .LVU21
 141 0000 024B     		ldr	r3, .L14	@ tmp119,
 142              	@ /home/nate/playdate/PlaydateSDK-2.0.3/C_API/buildsupport/setup.c:21: void* _realloc_r(struct _ree
ARM GAS  /tmp/cc6Xbu2q.s 			page 4


 143              		.loc 1 21 67 view .LVU22
 144 0002 0846     		mov	r0, r1	@ tmp121, ptr
 145              	.LVL7:
 146              	@ /home/nate/playdate/PlaydateSDK-2.0.3/C_API/buildsupport/setup.c:21: void* _realloc_r(struct _ree
 147              		.loc 1 21 76 view .LVU23
 148 0004 1146     		mov	r1, r2	@, tmp122
 149              	.LVL8:
 150              		.loc 1 21 76 view .LVU24
 151 0006 1B68     		ldr	r3, [r3]	@ pdrealloc, pdrealloc
 152 0008 1847     		bx	r3		@ pdrealloc
 153              	.LVL9:
 154              	.L15:
 155              		.loc 1 21 76 view .LVU25
 156 000a 00BF     		.align	2
 157              	.L14:
 158 000c 00000000 		.word	pdrealloc
 159              		.cfi_endproc
 160              	.LFE14:
 161              		.size	_realloc_r, .-_realloc_r
 162              		.section	.text._free_r,"ax",%progbits
 163              		.align	1
 164              		.p2align 4,,15
 165              		.global	_free_r
 166              		.syntax unified
 167              		.thumb
 168              		.thumb_func
 169              		.type	_free_r, %function
 170              	_free_r:
 171              	.LVL10:
 172              	.LFB15:
  22:/home/nate/playdate/PlaydateSDK-2.0.3/C_API/buildsupport/setup.c **** void _free_r(struct _reent* _REENT, void* ptr ) { if ( ptr != NULL ) pdrealloc(ptr,0); }
 173              		.loc 1 22 49 is_stmt 1 view -0
 174              		.cfi_startproc
 175              		@ args = 0, pretend = 0, frame = 0
 176              		@ frame_needed = 0, uses_anonymous_args = 0
 177              		@ link register save eliminated.
 178              		.loc 1 22 51 view .LVU27
 179              	@ /home/nate/playdate/PlaydateSDK-2.0.3/C_API/buildsupport/setup.c:22: void _free_r(struct _reent* 
 180              		.loc 1 22 54 is_stmt 0 view .LVU28
 181 0000 0846     		mov	r0, r1	@ ptr, tmp119
 182              	.LVL11:
 183              		.loc 1 22 54 view .LVU29
 184 0002 19B1     		cbz	r1, .L16	@ ptr,
 185              		.loc 1 22 70 is_stmt 1 discriminator 1 view .LVU30
 186 0004 024B     		ldr	r3, .L18	@ tmp117,
 187 0006 0021     		movs	r1, #0	@,
 188              	.LVL12:
 189              		.loc 1 22 70 is_stmt 0 discriminator 1 view .LVU31
 190 0008 1B68     		ldr	r3, [r3]	@ pdrealloc, pdrealloc
 191 000a 1847     		bx	r3		@ pdrealloc
 192              	.LVL13:
 193              	.L16:
 194              	@ /home/nate/playdate/PlaydateSDK-2.0.3/C_API/buildsupport/setup.c:22: void _free_r(struct _reent* 
 195              		.loc 1 22 88 view .LVU32
 196 000c 7047     		bx	lr	@
 197              	.L19:
 198 000e 00BF     		.align	2
ARM GAS  /tmp/cc6Xbu2q.s 			page 5


 199              	.L18:
 200 0010 00000000 		.word	pdrealloc
 201              		.cfi_endproc
 202              	.LFE15:
 203              		.size	_free_r, .-_free_r
 204              		.section	.bss.pdrealloc,"aw",%nobits
 205              		.align	2
 206              		.type	pdrealloc, %object
 207              		.size	pdrealloc, 4
 208              	pdrealloc:
 209 0000 00000000 		.space	4
 210              		.text
 211              	.Letext0:
 212              		.file 2 "/usr/arm-none-eabi/include/machine/_default_types.h"
 213              		.file 3 "/usr/arm-none-eabi/include/sys/_stdint.h"
 214              		.file 4 "/usr/lib/gcc/arm-none-eabi/13.2.0/include/stddef.h"
 215              		.file 5 "/usr/arm-none-eabi/include/sys/_types.h"
 216              		.file 6 "/usr/arm-none-eabi/include/sys/reent.h"
 217              		.file 7 "/usr/arm-none-eabi/include/sys/lock.h"
 218              		.file 8 "/home/nate/playdate/PlaydateSDK-2.0.3/C_API/pd_api/pd_api_gfx.h"
 219              		.file 9 "/home/nate/playdate/PlaydateSDK-2.0.3/C_API/pd_api/pd_api_sys.h"
 220              		.file 10 "/home/nate/playdate/PlaydateSDK-2.0.3/C_API/pd_api/pd_api_lua.h"
 221              		.file 11 "/home/nate/playdate/PlaydateSDK-2.0.3/C_API/pd_api/pd_api_json.h"
 222              		.file 12 "/home/nate/playdate/PlaydateSDK-2.0.3/C_API/pd_api/pd_api_file.h"
 223              		.file 13 "/home/nate/playdate/PlaydateSDK-2.0.3/C_API/pd_api/pd_api_sprite.h"
 224              		.file 14 "/home/nate/playdate/PlaydateSDK-2.0.3/C_API/pd_api/pd_api_sound.h"
 225              		.file 15 "/home/nate/playdate/PlaydateSDK-2.0.3/C_API/pd_api/pd_api_display.h"
 226              		.file 16 "/home/nate/playdate/PlaydateSDK-2.0.3/C_API/pd_api/pd_api_scoreboards.h"
 227              		.file 17 "/home/nate/playdate/PlaydateSDK-2.0.3/C_API/pd_api.h"
 228              		.file 18 "/usr/arm-none-eabi/include/stdlib.h"